target datalayout = "e-m:e-p270:32:32-p271:32:32-p272:64:64-i64:64-i128:128-f80:128-n8:16:32:64-S128"
target triple = "x86_64-pc-linux-gnu"

%struct.stbir__sampler = type { ptr, ptr, ptr, ptr, %struct.stbir__scale_info, float, i32, ptr, ptr, i32, i32, i32, i32, i32, i32, i32, %struct.stbir__filter_extent_info, i32, i32, i32, i32, i32 }
%struct.stbir__scale_info = type { i32, i32, float, float, float, i32, i32, i32 }
%struct.stbir__filter_extent_info = type { i32, i32, i32 }

; Function Attrs: nounwind uwtable
define i32 @stbir__get_contributors(ptr noundef %0, i32 noundef %1) #3 {
  %3 = alloca i32, align 4
  %4 = alloca ptr, align 8
  %5 = alloca i32, align 4
  store ptr %0, ptr %4, align 8, !tbaa !3
  store i32 %1, ptr %5, align 4, !tbaa !26
  %6 = load i32, ptr %5, align 4, !tbaa !26
  %7 = icmp ne i32 %6, 0
  br i1 %7, label %8, label %13

8:                                                ; preds = %2
  %9 = load ptr, ptr %4, align 8, !tbaa !3
  %10 = getelementptr inbounds nuw %struct.stbir__sampler, ptr %9, i32 0, i32 4
  %11 = getelementptr inbounds nuw %struct.stbir__scale_info, ptr %10, i32 0, i32 1
  %12 = load i32, ptr %11, align 4, !tbaa !36
  store i32 %12, ptr %3, align 4
  br label %23

13:                                               ; preds = %2
  %14 = load ptr, ptr %4, align 8, !tbaa !3
  %15 = getelementptr inbounds nuw %struct.stbir__sampler, ptr %14, i32 0, i32 4
  %16 = getelementptr inbounds nuw %struct.stbir__scale_info, ptr %15, i32 0, i32 0
  %17 = load i32, ptr %16, align 8, !tbaa !37
  %18 = load ptr, ptr %4, align 8, !tbaa !3
  %19 = getelementptr inbounds nuw %struct.stbir__sampler, ptr %18, i32 0, i32 12
  %20 = load i32, ptr %19, align 4, !tbaa !38
  %21 = mul nsw i32 %20, 2
  %22 = add nsw i32 %17, %21
  store i32 %22, ptr %3, align 4
  br label %23

23:                                               ; preds = %13, %8
  %24 = load i32, ptr %3, align 4
  ret i32 %24
}