; Function Attrs: mustprogress nofree norecurse nosync nounwind willreturn memory(argmem: read) uwtable
define i32 @stbir__get_contributors(ptr noundef readonly captures(none) %0, i32 noundef %1) local_unnamed_addr #3 {
  %.not = icmp eq i32 %1, 0
  br i1 %.not, label %6, label %3

3:                                                ; preds = %2
  %4 = getelementptr inbounds nuw i8, ptr %0, i64 36
  %5 = load i32, ptr %4, align 4, !tbaa !29
  br label %13

6:                                                ; preds = %2
  %7 = getelementptr inbounds nuw i8, ptr %0, i64 32
  %8 = load i32, ptr %7, align 8, !tbaa !30
  %9 = getelementptr inbounds nuw i8, ptr %0, i64 100
  %10 = load i32, ptr %9, align 4, !tbaa !31
  %11 = shl nsw i32 %10, 1
  %12 = add nsw i32 %11, %8
  br label %13

13:                                               ; preds = %6, %3
  %.0 = phi i32 [ %5, %3 ], [ %12, %6 ]
  ret i32 %.0
}